target datalayout = "e-m:e-p270:32:32-p271:32:32-p272:64:64-i64:64-i128:128-f80:128-n8:16:32:64-S128"
target triple = "x86_64-pc-linux-gnu"

%struct.ocsp_service_locator_st = type { ptr, ptr }
%struct.ACCESS_DESCRIPTION_st = type { ptr, ptr }
%struct.GENERAL_NAME_st = type { i32, %union.anon.0 }
%union.anon.0 = type { ptr }

; Function Attrs: inlinehint nounwind uwtable
define internal ptr @ossl_check_ACCESS_DESCRIPTION_type(ptr noundef %0) #3 {
  %2 = alloca ptr, align 8
  store ptr %0, ptr %2, align 8, !tbaa !73
  %3 = load ptr, ptr %2, align 8, !tbaa !73
  ret ptr %3
}

; Function Attrs: inlinehint nounwind uwtable
define internal ptr @ossl_check_ACCESS_DESCRIPTION_sk_type(ptr noundef %0) #3 {
  %2 = alloca ptr, align 8
  store ptr %0, ptr %2, align 8, !tbaa !86
  %3 = load ptr, ptr %2, align 8, !tbaa !86
  ret ptr %3
}

; Function Attrs: nounwind uwtable
define ptr @OCSP_url_svcloc_new(ptr noundef %0, ptr noundef %1) #0 {
  %3 = alloca ptr, align 8
  %4 = alloca ptr, align 8
  %5 = alloca ptr, align 8
  %6 = alloca ptr, align 8
  %7 = alloca ptr, align 8
  %8 = alloca ptr, align 8
  store ptr %0, ptr %3, align 8, !tbaa !69
  store ptr %1, ptr %4, align 8, !tbaa !62
  call void @llvm.lifetime.start.p0(i64 8, ptr %5) #5
  store ptr null, ptr %5, align 8, !tbaa !25
  call void @llvm.lifetime.start.p0(i64 8, ptr %6) #5
  store ptr null, ptr %6, align 8, !tbaa !68
  call void @llvm.lifetime.start.p0(i64 8, ptr %7) #5
  store ptr null, ptr %7, align 8, !tbaa !71
  call void @llvm.lifetime.start.p0(i64 8, ptr %8) #5
  store ptr null, ptr %8, align 8, !tbaa !73
  %9 = call ptr @OCSP_SERVICELOC_new()
  store ptr %9, ptr %7, align 8, !tbaa !71
  %10 = icmp eq ptr %9, null
  br i1 %10, label %11, label %12

11:                                               ; preds = %2
  br label %91

12:                                               ; preds = %2
  %13 = load ptr, ptr %7, align 8, !tbaa !71
  %14 = getelementptr inbounds nuw %struct.ocsp_service_locator_st, ptr %13, i32 0, i32 0
  %15 = load ptr, ptr %14, align 8, !tbaa !75
  call void @X509_NAME_free(ptr noundef %15)
  %16 = load ptr, ptr %3, align 8, !tbaa !69
  %17 = call ptr @X509_NAME_dup(ptr noundef %16)
  %18 = load ptr, ptr %7, align 8, !tbaa !71
  %19 = getelementptr inbounds nuw %struct.ocsp_service_locator_st, ptr %18, i32 0, i32 0
  store ptr %17, ptr %19, align 8, !tbaa !75
  %20 = icmp eq ptr %17, null
  br i1 %20, label %21, label %22

21:                                               ; preds = %12
  br label %91

22:                                               ; preds = %12
  %23 = load ptr, ptr %4, align 8, !tbaa !62
  %24 = icmp ne ptr %23, null
  br i1 %24, label %25, label %35

25:                                               ; preds = %22
  %26 = load ptr, ptr %4, align 8, !tbaa !62
  %27 = load ptr, ptr %26, align 8, !tbaa !47
  %28 = icmp ne ptr %27, null
  br i1 %28, label %29, label %35

29:                                               ; preds = %25
  %30 = call ptr @OPENSSL_sk_new_null()
  %31 = load ptr, ptr %7, align 8, !tbaa !71
  %32 = getelementptr inbounds nuw %struct.ocsp_service_locator_st, ptr %31, i32 0, i32 1
  store ptr %30, ptr %32, align 8, !tbaa !78
  %33 = icmp eq ptr %30, null
  br i1 %33, label %34, label %35

34:                                               ; preds = %29
  br label %91

35:                                               ; preds = %29, %25, %22
  br label %36

36:                                               ; preds = %85, %35
  %37 = load ptr, ptr %4, align 8, !tbaa !62
  %38 = icmp ne ptr %37, null
  br i1 %38, label %39, label %43

39:                                               ; preds = %36
  %40 = load ptr, ptr %4, align 8, !tbaa !62
  %41 = load ptr, ptr %40, align 8, !tbaa !47
  %42 = icmp ne ptr %41, null
  br label %43

43:                                               ; preds = %39, %36
  %44 = phi i1 [ false, %36 ], [ %42, %39 ]
  br i1 %44, label %45, label %88

45:                                               ; preds = %43
  %46 = call ptr @ACCESS_DESCRIPTION_new()
  store ptr %46, ptr %8, align 8, !tbaa !73
  %47 = icmp eq ptr %46, null
  br i1 %47, label %48, label %49

48:                                               ; preds = %45
  br label %91

49:                                               ; preds = %45
  %50 = call ptr @OBJ_nid2obj(i32 noundef 178)
  %51 = load ptr, ptr %8, align 8, !tbaa !73
  %52 = getelementptr inbounds nuw %struct.ACCESS_DESCRIPTION_st, ptr %51, i32 0, i32 0
  store ptr %50, ptr %52, align 8, !tbaa !79
  %53 = icmp eq ptr %50, null
  br i1 %53, label %54, label %55

54:                                               ; preds = %49
  br label %91

55:                                               ; preds = %49
  %56 = call ptr @ASN1_IA5STRING_new()
  store ptr %56, ptr %6, align 8, !tbaa !68
  %57 = icmp eq ptr %56, null
  br i1 %57, label %58, label %59

58:                                               ; preds = %55
  br label %91

59:                                               ; preds = %55
  %60 = load ptr, ptr %6, align 8, !tbaa !68
  %61 = load ptr, ptr %4, align 8, !tbaa !62
  %62 = load ptr, ptr %61, align 8, !tbaa !47
  %63 = call i32 @ASN1_STRING_set(ptr noundef %60, ptr noundef %62, i32 noundef -1)
  %64 = icmp ne i32 %63, 0
  br i1 %64, label %66, label %65

65:                                               ; preds = %59
  br label %91

66:                                               ; preds = %59
  %67 = load ptr, ptr %8, align 8, !tbaa !73
  %68 = getelementptr inbounds nuw %struct.ACCESS_DESCRIPTION_st, ptr %67, i32 0, i32 1
  %69 = load ptr, ptr %68, align 8, !tbaa !81
  %70 = getelementptr inbounds nuw %struct.GENERAL_NAME_st, ptr %69, i32 0, i32 0
  store i32 6, ptr %70, align 8, !tbaa !82
  %71 = load ptr, ptr %6, align 8, !tbaa !68
  %72 = load ptr, ptr %8, align 8, !tbaa !73
  %73 = getelementptr inbounds nuw %struct.ACCESS_DESCRIPTION_st, ptr %72, i32 0, i32 1
  %74 = load ptr, ptr %73, align 8, !tbaa !81
  %75 = getelementptr inbounds nuw %struct.GENERAL_NAME_st, ptr %74, i32 0, i32 1
  store ptr %71, ptr %75, align 8, !tbaa !84
  store ptr null, ptr %6, align 8, !tbaa !68
  %76 = load ptr, ptr %7, align 8, !tbaa !71
  %77 = getelementptr inbounds nuw %struct.ocsp_service_locator_st, ptr %76, i32 0, i32 1
  %78 = load ptr, ptr %77, align 8, !tbaa !78
  %79 = call ptr @ossl_check_ACCESS_DESCRIPTION_sk_type(ptr noundef %78)
  %80 = load ptr, ptr %8, align 8, !tbaa !73
  %81 = call ptr @ossl_check_ACCESS_DESCRIPTION_type(ptr noundef %80)
  %82 = call i32 @OPENSSL_sk_push(ptr noundef %79, ptr noundef %81)
  %83 = icmp ne i32 %82, 0
  br i1 %83, label %85, label %84

84:                                               ; preds = %66
  br label %91

85:                                               ; preds = %66
  store ptr null, ptr %8, align 8, !tbaa !73
  %86 = load ptr, ptr %4, align 8, !tbaa !62
  %87 = getelementptr inbounds nuw ptr, ptr %86, i32 1
  store ptr %87, ptr %4, align 8, !tbaa !62
  br label %36, !llvm.loop !85

88:                                               ; preds = %43
  %89 = load ptr, ptr %7, align 8, !tbaa !71
  %90 = call ptr @X509V3_EXT_i2d(i32 noundef 371, i32 noundef 0, ptr noundef %89)
  store ptr %90, ptr %5, align 8, !tbaa !25
  br label %91

91:                                               ; preds = %88, %84, %65, %58, %54, %48, %34, %21, %11
  %92 = load ptr, ptr %6, align 8, !tbaa !68
  call void @ASN1_IA5STRING_free(ptr noundef %92)
  %93 = load ptr, ptr %8, align 8, !tbaa !73
  call void @ACCESS_DESCRIPTION_free(ptr noundef %93)
  %94 = load ptr, ptr %7, align 8, !tbaa !71
  call void @OCSP_SERVICELOC_free(ptr noundef %94)
  %95 = load ptr, ptr %5, align 8, !tbaa !25
  call void @llvm.lifetime.end.p0(i64 8, ptr %8) #5
  call void @llvm.lifetime.end.p0(i64 8, ptr %7) #5
  call void @llvm.lifetime.end.p0(i64 8, ptr %6) #5
  call void @llvm.lifetime.end.p0(i64 8, ptr %5) #5
  ret ptr %95
}