; Function Attrs: nounwind uwtable
define ptr @OCSP_url_svcloc_new(ptr noundef %0, ptr noundef readonly captures(address_is_null) %1) local_unnamed_addr #0 {
  %3 = tail call ptr @OCSP_SERVICELOC_new() #4
  %4 = icmp eq ptr %3, null
  br i1 %4, label %.loopexit, label %5

5:                                                ; preds = %2
  %6 = load ptr, ptr %3, align 8, !tbaa !41
  tail call void @X509_NAME_free(ptr noundef %6) #4
  %7 = tail call ptr @X509_NAME_dup(ptr noundef %0) #4
  store ptr %7, ptr %3, align 8, !tbaa !41
  %8 = icmp eq ptr %7, null
  br i1 %8, label %.loopexit, label %9

9:                                                ; preds = %5
  %cond = icmp eq ptr %1, null
  br i1 %cond, label %.critedge, label %10

10:                                               ; preds = %9
  %11 = load ptr, ptr %1, align 8, !tbaa !35
  %.not31 = icmp eq ptr %11, null
  br i1 %.not31, label %.lr.ph, label %12

12:                                               ; preds = %10
  %13 = tail call ptr @OPENSSL_sk_new_null() #4
  %14 = getelementptr inbounds nuw i8, ptr %3, i64 8
  store ptr %13, ptr %14, align 8, !tbaa !45
  %15 = icmp eq ptr %13, null
  br i1 %15, label %.loopexit, label %.lr.ph

.lr.ph:                                           ; preds = %10, %12
  %16 = getelementptr inbounds nuw i8, ptr %3, i64 8
  %17 = load ptr, ptr %1, align 8, !tbaa !35
  %.not3339 = icmp eq ptr %17, null
  br i1 %.not3339, label %.critedge, label %.lr.ph41

18:                                               ; preds = %32
  %19 = getelementptr inbounds nuw i8, ptr %.0253740, i64 8
  %20 = load ptr, ptr %19, align 8, !tbaa !35
  %.not33 = icmp eq ptr %20, null
  br i1 %.not33, label %.critedge, label %.lr.ph41

.lr.ph41:                                         ; preds = %.lr.ph, %18
  %.0253740 = phi ptr [ %19, %18 ], [ %1, %.lr.ph ]
  %21 = tail call ptr @ACCESS_DESCRIPTION_new() #4
  %22 = icmp eq ptr %21, null
  br i1 %22, label %.loopexit, label %23

23:                                               ; preds = %.lr.ph41
  %24 = tail call ptr @OBJ_nid2obj(i32 noundef 178) #4
  store ptr %24, ptr %21, align 8, !tbaa !46
  %25 = icmp eq ptr %24, null
  br i1 %25, label %.loopexit, label %26

26:                                               ; preds = %23
  %27 = tail call ptr @ASN1_IA5STRING_new() #4
  %28 = icmp eq ptr %27, null
  br i1 %28, label %.loopexit, label %29

29:                                               ; preds = %26
  %30 = load ptr, ptr %.0253740, align 8, !tbaa !35
  %31 = tail call i32 @ASN1_STRING_set(ptr noundef nonnull %27, ptr noundef %30, i32 noundef -1) #4
  %.not34 = icmp eq i32 %31, 0
  br i1 %.not34, label %.loopexit, label %32

32:                                               ; preds = %29
  %33 = getelementptr inbounds nuw i8, ptr %21, i64 8
  %34 = load ptr, ptr %33, align 8, !tbaa !48
  store i32 6, ptr %34, align 8, !tbaa !49
  %35 = getelementptr inbounds nuw i8, ptr %34, i64 8
  store ptr %27, ptr %35, align 8, !tbaa !51
  %36 = load ptr, ptr %16, align 8, !tbaa !45
  %37 = tail call i32 @OPENSSL_sk_push(ptr noundef %36, ptr noundef nonnull %21) #4
  %.not35 = icmp eq i32 %37, 0
  br i1 %.not35, label %.loopexit, label %18

.critedge:                                        ; preds = %18, %.lr.ph, %9
  %38 = tail call ptr @X509V3_EXT_i2d(i32 noundef 371, i32 noundef 0, ptr noundef nonnull %3) #4
  br label %.loopexit

.loopexit:                                        ; preds = %32, %29, %26, %23, %.lr.ph41, %12, %5, %2, %.critedge
  %.024 = phi ptr [ null, %2 ], [ null, %5 ], [ null, %12 ], [ %38, %.critedge ], [ null, %.lr.ph41 ], [ null, %23 ], [ null, %26 ], [ null, %29 ], [ null, %32 ]
  %.022 = phi ptr [ null, %2 ], [ null, %5 ], [ null, %12 ], [ null, %.critedge ], [ null, %32 ], [ %27, %29 ], [ null, %26 ], [ null, %23 ], [ null, %.lr.ph41 ]
  %.0 = phi ptr [ null, %2 ], [ null, %5 ], [ null, %12 ], [ null, %.critedge ], [ %21, %32 ], [ %21, %29 ], [ %21, %26 ], [ %21, %23 ], [ null, %.lr.ph41 ]
  tail call void @ASN1_IA5STRING_free(ptr noundef %.022) #4
  tail call void @ACCESS_DESCRIPTION_free(ptr noundef %.0) #4
  tail call void @OCSP_SERVICELOC_free(ptr noundef %3) #4
  ret ptr %.024
}